; ModuleID = '5/1123.c'
source_filename = "5/1123.c"
target datalayout = "e-m:e-p270:32:32-p271:32:32-p272:64:64-i64:64-f80:128-n8:16:32:64-S128"
target triple = "x86_64-pc-linux-gnu"

@.str = private unnamed_addr constant [4 x i8] c"%lf\00", align 1
@.str.1 = private unnamed_addr constant [3 x i8] c"%s\00", align 1
@.str.2 = private unnamed_addr constant [4 x i8] c"yes\00", align 1
@.str.3 = private unnamed_addr constant [3 x i8] c"no\00", align 1
@.str.4 = private unnamed_addr constant [6 x i8] c"error\00", align 1

; Function Attrs: noinline nounwind uwtable
define dso_local i32 @main() #0 {
  %1 = alloca i32, align 4
  %2 = alloca [510 x i8], align 16
  %3 = alloca [510 x i8], align 16
  %4 = alloca double, align 8
  %5 = alloca double, align 8
  %6 = alloca i32, align 4
  %7 = alloca i32, align 4
  %8 = alloca i32, align 4
  %9 = alloca i32, align 4
  %10 = alloca i32, align 4
  %11 = alloca i32, align 4
  %12 = alloca i32, align 4
  store i32 0, i32* %1, align 4
  store i32 0, i32* %10, align 4
  store i32 1, i32* %9, align 4
  store i32 0, i32* %12, align 4
  store i32 0, i32* %11, align 4
  %13 = call i32 (i8*, ...) @__isoc99_scanf(i8* getelementptr inbounds ([4 x i8], [4 x i8]* @.str, i64 0, i64 0), double* %4)
  %14 = getelementptr inbounds [510 x i8], [510 x i8]* %2, i64 0, i64 0
  %15 = call i32 (i8*, ...) @__isoc99_scanf(i8* getelementptr inbounds ([3 x i8], [3 x i8]* @.str.1, i64 0, i64 0), i8* %14)
  %16 = getelementptr inbounds [510 x i8], [510 x i8]* %3, i64 0, i64 0
  %17 = call i32 (i8*, ...) @__isoc99_scanf(i8* getelementptr inbounds ([3 x i8], [3 x i8]* @.str.1, i64 0, i64 0), i8* %16)
  %18 = getelementptr inbounds [510 x i8], [510 x i8]* %2, i64 0, i64 0
  %19 = call i64 @strlen(i8* %18) #3
  %20 = trunc i64 %19 to i32
  store i32 %20, i32* %7, align 4
  %21 = getelementptr inbounds [510 x i8], [510 x i8]* %3, i64 0, i64 0
  %22 = call i64 @strlen(i8* %21) #3
  %23 = trunc i64 %22 to i32
  store i32 %23, i32* %8, align 4
  %24 = load i32, i32* %7, align 4
  %25 = load i32, i32* %8, align 4
  %26 = icmp ne i32 %24, %25
  br i1 %26, label %27, label %28

27:                                               ; preds = %0
  store i32 0, i32* %9, align 4
  br label %122

28:                                               ; preds = %0
  %29 = load i32, i32* %7, align 4
  %30 = load i32, i32* %8, align 4
  %31 = icmp eq i32 %29, %30
  br i1 %31, label %32, label %121

32:                                               ; preds = %28
  store i32 0, i32* %6, align 4
  br label %33

33:                                               ; preds = %69, %32
  %34 = load i32, i32* %6, align 4
  %35 = load i32, i32* %7, align 4
  %36 = icmp slt i32 %34, %35
  br i1 %36, label %37, label %72

37:                                               ; preds = %33
  %38 = load i32, i32* %6, align 4
  %39 = sext i32 %38 to i64
  %40 = getelementptr inbounds [510 x i8], [510 x i8]* %2, i64 0, i64 %39
  %41 = load i8, i8* %40, align 1
  %42 = sext i8 %41 to i32
  %43 = icmp ne i32 %42, 65
  br i1 %43, label %44, label %68

44:                                               ; preds = %37
  %45 = load i32, i32* %6, align 4
  %46 = sext i32 %45 to i64
  %47 = getelementptr inbounds [510 x i8], [510 x i8]* %2, i64 0, i64 %46
  %48 = load i8, i8* %47, align 1
  %49 = sext i8 %48 to i32
  %50 = icmp ne i32 %49, 71
  br i1 %50, label %51, label %68

51:                                               ; preds = %44
  %52 = load i32, i32* %6, align 4
  %53 = sext i32 %52 to i64
  %54 = getelementptr inbounds [510 x i8], [510 x i8]* %2, i64 0, i64 %53
  %55 = load i8, i8* %54, align 1
  %56 = sext i8 %55 to i32
  %57 = icmp ne i32 %56, 67
  br i1 %57, label %58, label %68

58:                                               ; preds = %51
  %59 = load i32, i32* %6, align 4
  %60 = sext i32 %59 to i64
  %61 = getelementptr inbounds [510 x i8], [510 x i8]* %2, i64 0, i64 %60
  %62 = load i8, i8* %61, align 1
  %63 = sext i8 %62 to i32
  %64 = icmp ne i32 %63, 84
  br i1 %64, label %65, label %68

65:                                               ; preds = %58
  %66 = load i32, i32* %11, align 4
  %67 = add nsw i32 %66, 1
  store i32 %67, i32* %11, align 4
  br label %68

68:                                               ; preds = %65, %58, %51, %44, %37
  br label %69

69:                                               ; preds = %68
  %70 = load i32, i32* %6, align 4
  %71 = add nsw i32 %70, 1
  store i32 %71, i32* %6, align 4
  br label %33

72:                                               ; preds = %33
  %73 = load i32, i32* %11, align 4
  %74 = icmp sgt i32 %73, 0
  br i1 %74, label %75, label %76

75:                                               ; preds = %72
  store i32 0, i32* %9, align 4
  br label %76

76:                                               ; preds = %75, %72
  store i32 0, i32* %6, align 4
  br label %77

77:                                               ; preds = %113, %76
  %78 = load i32, i32* %6, align 4
  %79 = load i32, i32* %7, align 4
  %80 = icmp slt i32 %78, %79
  br i1 %80, label %81, label %116

81:                                               ; preds = %77
  %82 = load i32, i32* %6, align 4
  %83 = sext i32 %82 to i64
  %84 = getelementptr inbounds [510 x i8], [510 x i8]* %3, i64 0, i64 %83
  %85 = load i8, i8* %84, align 1
  %86 = sext i8 %85 to i32
  %87 = icmp ne i32 %86, 65
  br i1 %87, label %88, label %112

88:                                               ; preds = %81
  %89 = load i32, i32* %6, align 4
  %90 = sext i32 %89 to i64
  %91 = getelementptr inbounds [510 x i8], [510 x i8]* %3, i64 0, i64 %90
  %92 = load i8, i8* %91, align 1
  %93 = sext i8 %92 to i32
  %94 = icmp ne i32 %93, 71
  br i1 %94, label %95, label %112

95:                                               ; preds = %88
  %96 = load i32, i32* %6, align 4
  %97 = sext i32 %96 to i64
  %98 = getelementptr inbounds [510 x i8], [510 x i8]* %3, i64 0, i64 %97
  %99 = load i8, i8* %98, align 1
  %100 = sext i8 %99 to i32
  %101 = icmp ne i32 %100, 67
  br i1 %101, label %102, label %112

102:                                              ; preds = %95
  %103 = load i32, i32* %6, align 4
  %104 = sext i32 %103 to i64
  %105 = getelementptr inbounds [510 x i8], [510 x i8]* %3, i64 0, i64 %104
  %106 = load i8, i8* %105, align 1
  %107 = sext i8 %106 to i32
  %108 = icmp ne i32 %107, 84
  br i1 %108, label %109, label %112

109:                                              ; preds = %102
  %110 = load i32, i32* %12, align 4
  %111 = add nsw i32 %110, 1
  store i32 %111, i32* %12, align 4
  br label %112

112:                                              ; preds = %109, %102, %95, %88, %81
  br label %113

113:                                              ; preds = %112
  %114 = load i32, i32* %6, align 4
  %115 = add nsw i32 %114, 1
  store i32 %115, i32* %6, align 4
  br label %77

116:                                              ; preds = %77
  %117 = load i32, i32* %12, align 4
  %118 = icmp sgt i32 %117, 0
  br i1 %118, label %119, label %120

119:                                              ; preds = %116
  store i32 0, i32* %9, align 4
  br label %120

120:                                              ; preds = %119, %116
  br label %121

121:                                              ; preds = %120, %28
  br label %122

122:                                              ; preds = %121, %27
  store i32 0, i32* %6, align 4
  br label %123

123:                                              ; preds = %143, %122
  %124 = load i32, i32* %6, align 4
  %125 = load i32, i32* %7, align 4
  %126 = icmp slt i32 %124, %125
  br i1 %126, label %127, label %146

127:                                              ; preds = %123
  %128 = load i32, i32* %6, align 4
  %129 = sext i32 %128 to i64
  %130 = getelementptr inbounds [510 x i8], [510 x i8]* %2, i64 0, i64 %129
  %131 = load i8, i8* %130, align 1
  %132 = sext i8 %131 to i32
  %133 = load i32, i32* %6, align 4
  %134 = sext i32 %133 to i64
  %135 = getelementptr inbounds [510 x i8], [510 x i8]* %3, i64 0, i64 %134
  %136 = load i8, i8* %135, align 1
  %137 = sext i8 %136 to i32
  %138 = icmp eq i32 %132, %137
  br i1 %138, label %139, label %142

139:                                              ; preds = %127
  %140 = load i32, i32* %10, align 4
  %141 = add nsw i32 %140, 1
  store i32 %141, i32* %10, align 4
  br label %142

142:                                              ; preds = %139, %127
  br label %143

143:                                              ; preds = %142
  %144 = load i32, i32* %6, align 4
  %145 = add nsw i32 %144, 1
  store i32 %145, i32* %6, align 4
  br label %123

146:                                              ; preds = %123
  %147 = load i32, i32* %10, align 4
  %148 = sitofp i32 %147 to double
  %149 = fmul double 1.000000e+00, %148
  %150 = load i32, i32* %7, align 4
  %151 = sitofp i32 %150 to double
  %152 = fdiv double %149, %151
  store double %152, double* %5, align 8
  %153 = load i32, i32* %9, align 4
  %154 = icmp eq i32 %153, 1
  br i1 %154, label %155, label %161

155:                                              ; preds = %146
  %156 = load double, double* %5, align 8
  %157 = load double, double* %4, align 8
  %158 = fcmp ogt double %156, %157
  br i1 %158, label %159, label %161

159:                                              ; preds = %155
  %160 = call i32 (i8*, ...) @printf(i8* getelementptr inbounds ([4 x i8], [4 x i8]* @.str.2, i64 0, i64 0))
  br label %177

161:                                              ; preds = %155, %146
  %162 = load i32, i32* %9, align 4
  %163 = icmp eq i32 %162, 1
  br i1 %163, label %164, label %170

164:                                              ; preds = %161
  %165 = load double, double* %5, align 8
  %166 = load double, double* %4, align 8
  %167 = fcmp ole double %165, %166
  br i1 %167, label %168, label %170

168:                                              ; preds = %164
  %169 = call i32 (i8*, ...) @printf(i8* getelementptr inbounds ([3 x i8], [3 x i8]* @.str.3, i64 0, i64 0))
  br label %176

170:                                              ; preds = %164, %161
  %171 = load i32, i32* %9, align 4
  %172 = icmp eq i32 %171, 0
  br i1 %172, label %173, label %175

173:                                              ; preds = %170
  %174 = call i32 (i8*, ...) @printf(i8* getelementptr inbounds ([6 x i8], [6 x i8]* @.str.4, i64 0, i64 0))
  br label %175

175:                                              ; preds = %173, %170
  br label %176

176:                                              ; preds = %175, %168
  br label %177

177:                                              ; preds = %176, %159
  ret i32 0
}

declare dso_local i32 @__isoc99_scanf(i8*, ...) #1

; Function Attrs: nounwind readonly
declare dso_local i64 @strlen(i8*) #2

declare dso_local i32 @printf(i8*, ...) #1


!llvm.module.flags = !{!0}
!llvm.ident = !{!1}

!0 = !{i32 1, !"wchar_size", i32 4}
!1 = !{!"clang version 10.0.0-4ubuntu1 "}
